; Function Attrs: mustprogress uwtable
define void @_ZN7rocksdb14ThreadLocalPtrC2EPFvPvE(ptr noundef nonnull align 4 captures(none) dereferenceable(4) %0, ptr noundef %1) unnamed_addr #0 align 2 personality ptr @__gxx_personality_v0 {
  %3 = load atomic i8, ptr @_ZGVZN7rocksdb14ThreadLocalPtr8InstanceEvE4inst acquire, align 8
  %4 = icmp eq i8 %3, 0
  br i1 %4, label %5, label %_ZN7rocksdb14ThreadLocalPtr8InstanceEv.exit, !prof !4

5:                                                ; preds = %2
  %6 = tail call i32 @__cxa_guard_acquire(ptr nonnull @_ZGVZN7rocksdb14ThreadLocalPtr8InstanceEvE4inst) #19
  %.not.i = icmp eq i32 %6, 0
  br i1 %.not.i, label %_ZN7rocksdb14ThreadLocalPtr8InstanceEv.exit, label %7

7:                                                ; preds = %5
  %8 = invoke noalias noundef nonnull dereferenceable(232) ptr @_Znwm(i64 noundef 232) #20
          to label %9 unwind label %11

9:                                                ; preds = %7
  invoke void @_ZN7rocksdb14ThreadLocalPtr10StaticMetaC1Ev(ptr noundef nonnull align 8 dereferenceable(228) %8)
          to label %10 unwind label %13

10:                                               ; preds = %9
  store ptr %8, ptr @_ZZN7rocksdb14ThreadLocalPtr8InstanceEvE4inst, align 8, !tbaa !5
  tail call void @__cxa_guard_release(ptr nonnull @_ZGVZN7rocksdb14ThreadLocalPtr8InstanceEvE4inst) #19
  br label %_ZN7rocksdb14ThreadLocalPtr8InstanceEv.exit

11:                                               ; preds = %7
  %12 = landingpad { ptr, i32 }
          cleanup
  br label %common.resume

13:                                               ; preds = %9
  %14 = landingpad { ptr, i32 }
          cleanup
  tail call void @_ZdlPvm(ptr noundef nonnull %8, i64 noundef 232) #21
  br label %common.resume

common.resume:                                    ; preds = %26, %28, %11, %13
  %common.resume.op = phi { ptr, i32 } [ %14, %13 ], [ %12, %11 ], [ %29, %28 ], [ %27, %26 ]
  tail call void @__cxa_guard_abort(ptr nonnull @_ZGVZN7rocksdb14ThreadLocalPtr8InstanceEvE4inst) #19
  resume { ptr, i32 } %common.resume.op

_ZN7rocksdb14ThreadLocalPtr8InstanceEv.exit:      ; preds = %2, %5, %10
  %15 = load ptr, ptr @_ZZN7rocksdb14ThreadLocalPtr8InstanceEvE4inst, align 8, !tbaa !5
  %16 = tail call noundef i32 @_ZN7rocksdb14ThreadLocalPtr10StaticMeta5GetIdEv(ptr noundef nonnull align 8 dereferenceable(228) %15)
  store i32 %16, ptr %0, align 4, !tbaa !94
  %.not = icmp eq ptr %1, null
  br i1 %.not, label %32, label %17

17:                                               ; preds = %_ZN7rocksdb14ThreadLocalPtr8InstanceEv.exit
  %18 = load atomic i8, ptr @_ZGVZN7rocksdb14ThreadLocalPtr8InstanceEvE4inst acquire, align 8
  %19 = icmp eq i8 %18, 0
  br i1 %19, label %20, label %_ZN7rocksdb14ThreadLocalPtr8InstanceEv.exit5, !prof !4

20:                                               ; preds = %17
  %21 = tail call i32 @__cxa_guard_acquire(ptr nonnull @_ZGVZN7rocksdb14ThreadLocalPtr8InstanceEvE4inst) #19
  %.not.i3 = icmp eq i32 %21, 0
  br i1 %.not.i3, label %_ZN7rocksdb14ThreadLocalPtr8InstanceEv.exit5, label %22

22:                                               ; preds = %20
  %23 = invoke noalias noundef nonnull dereferenceable(232) ptr @_Znwm(i64 noundef 232) #20
          to label %24 unwind label %26

24:                                               ; preds = %22
  invoke void @_ZN7rocksdb14ThreadLocalPtr10StaticMetaC1Ev(ptr noundef nonnull align 8 dereferenceable(228) %23)
          to label %25 unwind label %28

25:                                               ; preds = %24
  store ptr %23, ptr @_ZZN7rocksdb14ThreadLocalPtr8InstanceEvE4inst, align 8, !tbaa !5
  tail call void @__cxa_guard_release(ptr nonnull @_ZGVZN7rocksdb14ThreadLocalPtr8InstanceEvE4inst) #19
  br label %_ZN7rocksdb14ThreadLocalPtr8InstanceEv.exit5

26:                                               ; preds = %22
  %27 = landingpad { ptr, i32 }
          cleanup
  br label %common.resume

28:                                               ; preds = %24
  %29 = landingpad { ptr, i32 }
          cleanup
  tail call void @_ZdlPvm(ptr noundef nonnull %23, i64 noundef 232) #21
  br label %common.resume

_ZN7rocksdb14ThreadLocalPtr8InstanceEv.exit5:     ; preds = %17, %20, %25
  %30 = load ptr, ptr @_ZZN7rocksdb14ThreadLocalPtr8InstanceEvE4inst, align 8, !tbaa !5
  %31 = load i32, ptr %0, align 4, !tbaa !94
  tail call void @_ZN7rocksdb14ThreadLocalPtr10StaticMeta10SetHandlerEjPFvPvE(ptr noundef nonnull align 8 dereferenceable(228) %30, i32 noundef %31, ptr noundef nonnull %1)
  br label %32

32:                                               ; preds = %_ZN7rocksdb14ThreadLocalPtr8InstanceEv.exit5, %_ZN7rocksdb14ThreadLocalPtr8InstanceEv.exit
  ret void
}